(lp0
I2
aI626
aI746
aI18
aI392
aI507
aI752
aI457
aI28
aI60
aI578
aI427
aI659
aI447
aI704
aI155
aI699
aI546
aI571
aI374
aI269
aI661
aI97
aI50
aI196
aI190
aI747
aI792
aI766
aI243
aI46
aI264
aI301
aI710
aI292
aI208
aI598
aI487
aI516
aI469
aI777
aI755
aI255
aI540
aI577
aI692
aI679
aI253
aI562
aI8
aI779
aI101
aI340
aI498
aI74
aI373
aI506
aI566
aI450
aI607
aI619
aI793
aI524
aI236
aI791
aI737
aI79
aI472
aI83
aI622
aI332
aI346
aI114
aI431
aI569
aI201
aI497
aI574
aI613
aI675
aI325
aI642
aI62
aI424
aI634
aI397
aI308
aI379
aI484
aI473
aI788
aI20
aI494
aI254
aI380
aI559
aI526
aI560
aI620
aI651
aI750
aI358
aI42
aI313
aI342
aI197
aI226
aI48
aI389
aI697
aI630
aI376
aI107
aI156
aI274
aI315
aI530
aI799
aI265
aI221
aI170
aI284
aI519
aI145
aI756
aI576
aI356
aI209
aI461
aI491
aI563
aI720
aI99
aI678
aI773
aI235
aI108
aI486
aI451
aI616
aI805
aI672
aI175
aI347
aI30
aI280
aI103
aI479
aI36
aI728
aI807
aI295
aI688
aI407
aI548
aI636
aI753
aI157
aI480
aI81
aI327
aI638
aI412
aI536
aI179
aI513
aI572
aI561
aI739
aI758
aI310
aI147
aI106
aI261
aI436
aI89
aI246
aI21
aI555
aI552
aI227
aI418
aI153
aI668
aI723
aI680
aI58
aI504
aI658
aI352
aI47
aI335
aI245
aI565
aI455
aI582
aI508
aI488
aI608
aI17
aI550
aI433
aI621
aI725
aI26
aI345
aI689
aI656
aI80
aI518
aI260
aI38
aI411
aI443
aI485
aI601
aI477
aI553
aI581
aI800
aI268
aI267
aI283
aI462
aI510
aI232
aI597
aI762
aI417
aI579
aI395
aI109
aI490
aI646
aI165
aI712
aI66
aI40
aI381
aI191
aI568
aI410
aI673
aI681
aI75
aI644
aI702
aI500
aI690
aI14
aI585
aI364
aI189
aI96
aI135
aI306
aI460
aI203
aI573
aI535
aI341
aI159
aI365
aI596
aI685
aI632
aI520
aI478
aI542
aI557
aI742
aI695
aI9
aI353
aI272
aI120
aI151
aI231
aI511
aI383
aI528
aI588
aI503
aI754
aI683
aI701
aI798
aI39
aI631
aI69
aI808
aI408
aI164
aI736
aI774
aI225
aI592
aI801
aI735
aI732
aI731
aI624
aI23
aI693
aI649
aI95
aI388
aI648
aI421
aI437
aI489
aI250
aI531
aI361
aI378
aI502
aI122
aI207
aI15
aI140
aI355
aI123
aI223
aI740
aI802
aI289
aI252
aI144
aI161
aI639
aI205
aI549
aI471
aI643
aI70
aI168
aI786
aI186
aI595
aI492
aI296
aI430
aI29
aI132
aI237
aI784
aI662
aI247
aI377
aI133
aI249
aI200
aI541
aI32
aI523
aI57
aI307
aI85
aI185
aI400
aI142
aI517
aI657
aI481
aI6
aI694
aI663
aI137
aI512
aI385
aI432
aI780
aI102
aI44
aI162
aI158
aI764
aI452
aI281
aI682
aI259
aI664
aI687
aI743
aI795
aI290
aI677
aI282
aI329
aI666
aI177
aI543
aI63
aI357
aI369
aI239
aI660
aI700
aI741
aI614
aI623
aI637
aI317
aI748
aI603
aI178
aI606
aI575
aI49
aI248
aI676
aI670
aI72
aI76
aI73
aI402
aI785
aI729
aI609
aI628
aI691
aI228
aI493
aI409
aI337
aI318
aI119
aI54
aI768
aI794
aI286
aI251
aI419
aI757
aI118
aI87
aI707
aI386
aI370
aI244
aI806
aI797
aI65
aI312
aI169
aI322
aI212
aI19
aI602
aI751
aI459
aI403
aI303
aI129
aI34
aI590
aI321
aI398
aI474
aI143
aI713
aI180
aI738
aI43
aI789
aI115
aI334
aI287
aI468
aI270
aI343
aI217
aI16
aI587
aI406
aI525
aI113
aI726
aI625
aI629
aI324
aI277
aI323
aI93
aI291
aI354
aI7
aI781
aI604
aI529
aI401
aI449
aI544
aI612
aI86
aI350
aI599
aI600
aI545
aI558
aI195
aI396
aI263
aI27
aI300
aI705
aI41
aI4
aI256
aI204
aI733
aI501
aI465
aI580
aI537
aI288
aI730
aI319
aI117
aI767
aI522
aI138
aI194
aI206
aI257
aI98
aI717
aI744
aI3
aI88
aI82
aI130
aI51
aI759
aI367
aI647
aI5
aI94
aI150
aI163
aI760
aI299
aI482
aI90
aI311
aI111
aI782
aI339
aI796
aI749
aI594
aI360
aI375
aI769
aI422
aI242
aI183
aI466
aI148
aI674
aI314
aI775
aI297
aI761
aI202
aI167
aI25
aI771
aI67
aI435
aI384
aI187
aI52
aI92
aI671
aI171
aI476
aI719
aI715
aI514
aI22
aI414
aI298
aI429
aI669
aI45
aI611
aI534
aI241
aI215
aI387
aI53
aI706
aI583
aI320
aI515
aI363
aI37
aI336
aI653
aI444
aI105
aI439
aI665
aI173
aI304
aI258
aI640
aI220
aI547
aI698
aI316
aI790
aI12
aI121
aI464
aI776
aI134
aI533
aI234
aI696
aI399
aI302
aI214
aI198
aI803
aI271
aI724
aI141
aI238
aI351
aI262
aI509
aI589
aI213
aI721
aI708
aI627
aI266
aI210
aI495
aI184
aI359
aI31
aI59
aI124
aI391
aI416
aI276
aI78
aI551
aI445
aI160
aI1
aI499
aI104
aI84
aI166
aI240
aI645
aI483
aI456
aI126
aI326
aI709
aI116
aI765
aI467
aI328
aI618
aI415
aI770
aI454
aI404
aI440
aI131
aI100
aI279
aI176
aI532
aI405
aI655
aI333
aI305
aI714
aI278
aI684
aI496
aI635
aI125
aI442
aI446
aI13
aI591
aI136
aI371
aI652
aI181
aI470
aI448
aI182
aI734
aI294
aI438
aI61
aI91
aI77
aI425
aI539
aI413
aI727
aI154
aI222
aI554
aI745
aI633
aI146
aI615
aI362
aI344
aI393
aI193
aI787
aI605
aI722
aI527
aI68
aI390
aI650
aI330
aI216
aI538
aI593
aI152
aI293
aI285
aI686
aI348
aI71
aI24
aI641
aI772
aI149
aI192
aI218
aI188
aI703
aI654
aI667
aI366
aI556
aI368
aI763
aI521
aI211
aI233
aI230
aI423
aI453
aI338
aI56
aI716
aI809
aI349
aI420
aI224
aI229
aI33
aI718
aI617
aI139
aI372
aI804
aI127
aI394
aI441
aI458
aI567
aI10
aI711
aI505
aI110
aI172
aI309
aI778
aI428
aI564
aI64
aI331
aI55
aI570
aI434
aI463
aI35
aI128
aI783
aI219
aI584
aI112
aI199
aI174
aI475
aI610
aI11
aI426
aI275
aI273
aI586
aI382
a.