(lp0
I317
aI676
aI715
aI696
aI681
aI673
aI739
aI699
aI710
aI704
aI677
aI803
aI724
aI483
aI742
aI695
aI675
aI657
aI623
aI654
aI725
aI717
aI674
aI702
aI645
aI708
aI713
aI799
aI658
aI801
aI716
aI698
aI656
aI706
aI624
aI744
aI629
aI678
aI630
aI703
aI697
aI686
aI625
aI726
aI746
aI701
aI628
aI711
aI743
aI802
aI700
aI653
aI621
aI672
aI712
aI714
aI709
aI741
aI745
aI740
aI671
aI627
aI626
aI798
aI800
aI298
aI121
aI555
aI478
aI476
aI42
aI181
aI251
aI100
aI191
aI668
aI646
aI663
aI670
aI264
aI262
aI263
aI7
aI6
aI527
aI250
aI184
aI453
aI166
aI424
aI720
aI209
aI729
aI246
aI669
aI664
aI682
aI680
aI206
aI417
aI309
aI112
aI733
aI300
aI277
aI14
aI719
aI312
aI93
aI299
aI198
aI684
aI752
aI637
aI303
aI388
aI113
aI275
aI433
aI211
aI785
aI520
aI224
aI289
aI334
aI225
aI805
aI170
aI685
aI662
aI341
aI158
aI533
aI474
aI438
aI589
aI765
aI660
aI85
aI639
aI683
aI422
aI647
aI258
aI394
aI50
aI512
aI182
aI367
aI602
aI692
aI723
aI19
aI245
aI499
aI78
aI489
aI730
aI578
aI146
aI399
aI383
aI523
aI493
aI132
aI773
aI430
aI418
aI469
aI9
aI426
aI295
aI101
aI65
aI73
aI119
aI105
aI598
aI151
aI70
aI693
aI80
aI162
aI614
aI244
aI18
aI236
aI380
aI722
aI51
aI228
aI286
aI389
aI12
aI397
aI212
aI366
aI473
aI82
aI593
aI601
aI348
aI28
aI56
aI333
aI687
aI529
aI562
aI756
aI313
aI497
aI661
aI260
aI778
aI13
aI200
aI463
aI579
aI517
aI150
aI349
aI63
aI261
aI2
aI176
aI604
aI128
aI535
aI107
aI279
aI114
aI599
aI569
aI59
aI116
aI185
aI197
aI392
aI413
aI650
aI596
aI789
aI570
aI240
aI213
aI321
aI308
aI760
aI223
aI786
aI721
aI559
aI633
aI199
aI541
aI161
aI807
aI270
aI248
aI30
aI402
aI183
aI575
aI189
aI238
aI565
aI528
aI8
aI774
aI157
aI134
aI186
aI504
aI57
aI404
aI481
aI17
aI58
aI603
aI120
aI5
aI707
aI336
aI46
aI452
aI459
aI247
aI728
aI667
aI797
aI326
aI243
aI10
aI615
aI76
aI479
aI501
aI537
aI595
aI554
aI795
aI11
aI610
aI607
aI576
aI689
aI414
aI285
aI447
aI253
aI423
aI391
aI153
aI548
aI526
aI68
aI346
aI511
aI147
aI763
aI188
aI472
aI193
aI488
aI588
aI584
aI75
aI194
aI531
aI804
aI117
aI3
aI356
aI360
aI219
aI496
aI608
aI91
aI339
aI142
aI442
aI83
aI135
aI642
aI358
aI38
aI762
aI140
aI522
aI252
aI755
aI330
aI22
aI234
aI364
aI324
aI143
aI118
aI385
aI174
aI320
aI449
aI229
aI490
aI437
aI268
aI377
aI370
aI31
aI175
aI808
aI79
aI585
aI23
aI210
aI177
aI571
aI636
aI292
aI125
aI230
aI375
aI352
aI363
aI368
aI87
aI806
aI306
aI809
aI342
aI620
aI204
aI513
aI374
aI323
aI651
aI515
aI753
aI315
aI581
aI583
aI124
aI278
aI4
aI393
aI487
aI88
aI235
aI265
aI510
aI169
aI190
aI492
aI403
aI622
aI638
aI214
aI195
aI327
aI66
aI294
aI196
aI319
aI149
aI301
aI482
aI44
aI486
aI20
aI48
aI160
aI546
aI544
aI187
aI71
aI412
aI395
aI24
aI566
aI192
aI241
aI249
aI508
aI168
aI434
aI386
aI509
aI217
aI139
aI787
aI267
aI242
aI164
aI1
aI357
aI351
aI307
aI553
aI605
aI398
aI371
aI145
aI485
aI133
aI572
aI359
aI450
aI407
aI281
aI410
aI361
aI794
aI455
aI440
aI103
aI718
aI179
aI580
aI456
aI332
aI574
aI408
aI311
aI237
aI634
aI180
aI783
aI500
aI280
aI104
aI173
aI796
aI232
aI27
aI344
aI155
aI617
aI355
aI618
aI102
aI494
aI416
aI445
aI273
aI136
aI475
aI567
aI457
aI34
aI643
aI32
aI159
aI274
aI259
aI484
aI396
aI791
aI40
aI655
aI293
aI409
aI582
aI587
aI619
aI769
aI384
aI666
aI521
aI239
aI436
aI503
aI470
aI111
aI61
aI573
aI471
aI612
aI347
aI92
aI751
aI557
aI39
aI148
aI130
aI89
aI750
aI288
aI379
aI109
aI458
aI532
aI227
aI257
aI519
aI749
aI530
aI732
aI790
aI784
aI26
aI115
aI226
aI558
aI137
aI502
aI432
aI495
aI305
aI462
aI131
aI316
aI95
aI141
aI337
aI411
aI770
aI271
aI77
aI766
aI736
aI47
aI255
aI362
aI775
aI761
aI727
aI448
aI451
aI35
aI754
aI53
aI340
aI480
aI779
aI401
aI350
aI594
aI381
aI609
aI590
aI43
aI477
aI282
aI551
aI96
aI441
aI542
aI405
aI33
aI688
aI524
aI127
aI325
aI208
aI178
aI429
aI428
aI758
aI287
aI222
aI540
aI632
aI776
aI216
aI272
aI72
aI691
aI545
aI231
aI318
aI586
aI331
aI353
aI649
aI74
aI156
aI291
aI144
aI464
aI771
aI256
aI431
aI665
aI163
aI202
aI757
aI376
aI467
aI780
aI792
aI777
aI564
aI345
aI328
aI705
aI568
aI62
aI782
aI254
aI468
aI365
aI694
aI310
aI165
aI600
aI560
aI284
aI167
aI592
aI37
aI552
aI218
aI276
aI203
aI644
aI69
aI99
aI516
aI54
aI90
aI220
aI420
aI764
aI269
aI415
aI518
aI154
aI322
aI373
aI738
aI138
aI126
aI36
aI461
aI735
aI52
aI507
aI314
aI110
aI427
aI152
aI538
aI64
aI525
aI611
aI465
aI446
aI335
aI491
aI16
aI382
aI49
aI205
aI201
aI400
aI233
aI556
aI652
aI84
aI369
aI94
aI221
aI679
aI563
aI98
aI534
aI55
aI547
aI550
aI460
aI60
aI591
aI454
aI577
aI539
aI378
aI41
aI788
aI731
aI606
aI290
aI631
aI793
aI444
aI767
aI207
aI21
aI506
aI387
aI106
aI123
aI425
aI641
aI406
aI304
aI419
aI748
aI781
aI67
aI338
aI86
aI443
aI29
aI616
aI296
aI635
aI498
aI108
aI283
aI129
aI171
aI15
aI97
aI659
aI25
aI266
aI505
aI343
aI421
aI734
aI690
aI640
aI514
aI390
aI435
aI737
aI768
aI613
aI536
aI439
aI549
aI597
aI648
aI543
aI372
aI759
aI45
aI122
aI302
aI466
aI215
aI354
aI172
aI561
aI81
aI329
aI772
aI297
aI747
a.