(lp0
I389
aI193
aI589
aI165
aI77
aI408
aI367
aI74
aI305
aI157
aI172
aI173
aI387
aI460
aI289
aI458
aI395
aI348
aI156
aI163
aI301
aI388
aI258
aI393
aI76
aI335
aI807
aI307
aI75
aI342
aI363
aI120
aI308
aI67
aI72
aI428
aI166
aI429
aI200
aI164
aI170
aI530
aI392
aI213
aI394
aI198
aI294
aI422
aI306
aI382
aI215
aI465
aI171
aI186
aI381
aI214
aI386
aI159
aI158
aI257
aI248
aI461
aI209
aI377
aI424
aI371
aI369
aI430
aI207
aI121
aI139
aI123
aI208
aI451
aI380
aI63
aI256
aI107
aI412
aI254
aI249
aI320
aI509
aI431
aI464
aI152
aI425
aI459
aI466
aI288
aI246
aI295
aI205
aI71
aI220
aI178
aI467
aI378
aI560
aI284
aI212
aI252
aI114
aI255
aI423
aI413
aI131
aI222
aI250
aI390
aI426
aI347
aI206
aI346
aI270
aI375
aI247
aI370
aI168
aI46
aI62
aI221
aI526
aI61
aI293
aI151
aI312
aI349
aI122
aI432
aI182
aI285
aI296
aI137
aI454
aI60
aI281
aI365
aI309
aI135
aI48
aI80
aI176
aI144
aI376
aI79
aI216
aI253
aI364
aI362
aI90
aI374
aI481
aI286
aI304
aI37
aI49
aI280
aI174
aI145
aI73
aI410
aI443
aI260
aI150
aI417
aI225
aI310
aI277
aI66
aI271
aI202
aI149
aI236
aI548
aI108
aI368
aI265
aI229
aI401
aI78
aI373
aI140
aI406
aI136
aI419
aI330
aI291
aI142
aI337
aI292
aI199
aI303
aI449
aI400
aI181
aI383
aI143
aI52
aI405
aI35
aI28
aI238
aI436
aI283
aI31
aI187
aI391
aI138
aI227
aI109
aI243
aI266
aI314
aI191
aI64
aI241
aI273
aI453
aI469
aI179
aI93
aI399
aI242
aI418
aI192
aI68
aI226
aI185
aI201
aI194
aI474
aI416
aI440
aI167
aI442
aI562
aI228
aI297
aI169
aI234
aI455
aI219
aI694
aI180
aI235
aI527
aI448
aI59
aI435
aI545
aI450
aI332
aI57
aI318
aI720
aI411
aI175
aI300
aI366
aI141
aI240
aI404
aI217
aI334
aI50
aI69
aI97
aI398
aI45
aI791
aI324
aI315
aI184
aI51
aI251
aI85
aI407
aI298
aI33
aI58
aI446
aI195
aI384
aI809
aI177
aI326
aI757
aI358
aI385
aI233
aI162
aI118
aI433
aI452
aI190
aI230
aI445
aI379
aI146
aI96
aI403
aI434
aI89
aI83
aI751
aI210
aI275
aI94
aI648
aI211
aI544
aI594
aI92
aI322
aI155
aI153
aI457
aI478
aI106
aI339
aI287
aI148
aI441
aI299
aI341
aI396
aI336
aI808
aI223
aI239
aI84
aI259
aI566
aI539
aI204
aI397
aI160
aI81
aI244
aI585
aI468
aI218
aI456
aI427
aI70
aI437
aI372
aI439
aI541
aI737
aI279
aI47
aI617
aI524
aI402
aI43
aI302
aI321
aI132
aI353
aI590
aI558
aI750
aI447
aI543
aI586
aI316
aI546
aI773
aI421
aI327
aI30
aI125
aI343
aI197
aI529
aI232
aI323
aI154
aI116
aI596
aI44
aI542
aI564
aI113
aI438
aI409
aI111
aI290
aI528
aI525
aI183
aI245
aI482
aI805
aI414
aI188
aI561
aI203
aI517
aI523
aI415
aI796
aI338
aI512
aI237
aI65
aI507
aI794
aI462
aI41
aI110
aI333
aI540
aI463
aI325
aI311
aI568
aI444
aI36
aI518
aI587
aI102
aI112
aI105
aI161
aI692
aI592
aI420
aI147
aI82
aI40
aI196
aI98
aI103
aI508
aI53
aI189
aI224
aI718
aI595
aI651
aI32
aI91
aI559
aI268
aI488
aI557
aI359
aI55
aI567
aI352
aI721
aI231
aI565
aI313
aI556
aI95
aI340
aI272
aI276
aI515
aI660
aI506
aI282
aI115
aI24
aI593
aI104
aI54
aI505
aI360
aI328
aI39
aI133
aI555
aI357
aI622
aI516
aI26
aI100
aI693
aI588
aI25
aI510
aI650
aI591
aI86
aI278
aI584
aI99
aI354
aI772
aI128
aI583
aI87
aI493
aI690
aI56
aI563
aI101
aI13
aI552
aI691
aI42
aI758
aI485
aI601
aI317
aI127
aI480
aI267
aI38
aI551
aI797
aI615
aI531
aI729
aI329
aI331
aI618
aI535
aI344
aI126
aI728
aI117
aI9
aI261
aI350
aI738
aI727
aI549
aI319
aI274
aI795
aI27
aI8
aI612
aI722
aI719
aI537
aI637
aI575
aI88
aI119
aI572
aI547
aI22
aI34
aI124
aI351
aI520
aI501
aI534
aI345
aI582
aI632
aI571
aI573
aI554
aI472
aI614
aI734
aI476
aI652
aI532
aI477
aI581
aI723
aI793
aI533
aI787
aI620
aI747
aI23
aI550
aI538
aI536
aI11
aI749
aI269
aI486
aI609
aI20
aI602
aI634
aI782
aI15
aI635
aI10
aI130
aI781
aI598
aI21
aI607
aI667
aI14
aI780
aI570
aI1
aI487
aI783
aI553
aI792
aI760
aI484
aI576
aI619
aI19
aI752
aI3
aI470
aI735
aI616
aI733
aI778
aI479
aI578
aI759
aI18
aI5
aI788
aI16
aI603
aI604
aI513
aI569
aI647
aI522
aI355
aI613
aI129
aI775
aI640
aI495
aI600
aI17
aI12
aI756
aI356
aI610
aI611
aI606
aI641
aI736
aI579
aI636
aI471
aI769
aI361
aI599
aI608
aI475
aI494
aI2
aI490
aI489
aI498
aI776
aI491
aI597
aI761
aI661
aI134
aI777
aI574
aI4
aI785
aI29
aI789
aI763
aI790
aI511
aI754
aI774
aI644
aI755
aI473
aI577
aI786
aI767
aI605
aI580
aI732
aI521
aI779
aI649
aI766
aI666
aI806
aI519
aI504
aI762
aI659
aI665
aI770
aI514
aI771
aI748
aI638
aI753
aI642
aI768
aI639
aI633
aI804
aI784
aI764
aI497
aI765
aI801
aI707
aI689
aI492
aI500
aI503
aI643
aI731
aI657
aI730
aI496
aI499
aI502
aI658
aI7
aI6
aI685
aI701
aI716
aI708
aI724
aI264
aI262
aI263
aI671
aI706
aI695
aI655
aI710
aI725
aI688
aI653
aI680
aI696
aI683
aI726
aI656
aI713
aI631
aI717
aI712
aI698
aI674
aI709
aI676
aI675
aI673
aI672
aI697
aI744
aI669
aI678
aI745
aI700
aI686
aI687
aI663
aI714
aI670
aI711
aI684
aI703
aI702
aI664
aI668
aI704
aI677
aI681
aI746
aI682
aI654
aI662
aI699
aI679
aI715
aI705
aI629
aI626
aI798
aI628
aI625
aI624
aI627
aI800
aI799
aI741
aI630
aI802
aI742
aI743
aI739
aI621
aI645
aI803
aI740
aI646
aI623
aI483
a.