(lp0
I809
aI539
aI573
aI760
aI532
aI119
aI253
aI361
aI753
aI243
aI37
aI228
aI555
aI94
aI766
aI45
aI186
aI413
aI561
aI725
aI26
aI458
aI522
aI247
aI109
aI183
aI257
aI668
aI544
aI785
aI245
aI794
aI333
aI231
aI605
aI170
aI715
aI11
aI764
aI400
aI240
aI358
aI537
aI557
aI319
aI74
aI728
aI317
aI481
aI321
aI505
aI459
aI364
aI735
aI13
aI799
aI142
aI550
aI132
aI473
aI285
aI489
aI48
aI556
aI517
aI611
aI158
aI131
aI343
aI314
aI487
aI192
aI535
aI655
aI365
aI504
aI15
aI41
aI493
aI385
aI621
aI577
aI679
aI172
aI472
aI150
aI251
aI292
aI375
aI497
aI588
aI768
aI155
aI185
aI34
aI108
aI780
aI789
aI653
aI692
aI576
aI599
aI107
aI30
aI554
aI488
aI646
aI499
aI618
aI442
aI95
aI747
aI184
aI457
aI758
aI586
aI453
aI147
aI541
aI238
aI748
aI353
aI455
aI778
aI19
aI139
aI444
aI512
aI223
aI700
aI327
aI54
aI87
aI296
aI261
aI593
aI708
aI335
aI675
aI116
aI140
aI83
aI482
aI723
aI359
aI433
aI91
aI280
aI516
aI1
aI265
aI346
aI439
aI440
aI705
aI693
aI259
aI523
aI578
aI189
aI174
aI341
aI639
aI148
aI24
aI218
aI367
aI153
aI801
aI808
aI606
aI680
aI362
aI345
aI598
aI477
aI464
aI43
aI410
aI738
aI425
aI52
aI258
aI163
aI387
aI474
aI407
aI742
aI719
aI302
aI399
aI506
aI507
aI205
aI462
aI527
aI626
aI643
aI388
aI716
aI549
aI275
aI704
aI486
aI632
aI619
aI220
aI720
aI697
aI595
aI198
aI566
aI718
aI206
aI242
aI609
aI342
aI389
aI164
aI382
aI250
aI649
aI401
aI677
aI502
aI63
aI791
aI32
aI323
aI339
aI356
aI644
aI143
aI315
aI60
aI729
aI86
aI591
aI706
aI200
aI187
aI113
aI39
aI617
aI105
aI670
aI46
aI404
aI613
aI426
aI678
aI614
aI797
aI196
aI310
aI129
aI305
aI318
aI78
aI671
aI415
aI73
aI31
aI584
aI181
aI115
aI82
aI686
aI496
aI520
aI734
aI281
aI542
aI383
aI267
aI579
aI217
aI16
aI696
aI592
aI752
aI351
aI419
aI308
aI664
aI690
aI417
aI685
aI406
aI180
aI157
aI779
aI44
aI408
aI97
aI583
aI160
aI480
aI683
aI580
aI248
aI412
aI133
aI254
aI103
aI322
aI691
aI241
aI313
aI81
aI642
aI12
aI29
aI767
aI651
aI773
aI350
aI332
aI239
aI229
aI237
aI714
aI411
aI262
aI6
aI672
aI448
aI295
aI10
aI746
aI585
aI429
aI28
aI601
aI96
aI711
aI650
aI478
aI51
aI777
aI124
aI702
aI167
aI684
aI802
aI36
aI757
aI534
aI500
aI689
aI392
aI536
aI604
aI299
aI564
aI65
aI394
aI201
aI193
aI336
aI607
aI214
aI90
aI733
aI47
aI72
aI665
aI552
aI14
aI125
aI328
aI572
aI80
aI403
aI378
aI622
aI724
aI806
aI494
aI547
aI695
aI772
aI216
aI264
aI661
aI191
aI225
aI57
aI288
aI627
aI610
aI770
aI436
aI38
aI508
aI424
aI77
aI423
aI173
aI59
aI674
aI694
aI294
aI414
aI483
aI300
aI781
aI662
aI745
aI166
aI7
aI89
aI620
aI110
aI739
aI518
aI27
aI633
aI657
aI366
aI137
aI776
aI559
aI409
aI25
aI168
aI270
aI260
aI437
aI427
aI188
aI118
aI363
aI349
aI284
aI740
aI344
aI540
aI560
aI226
aI479
aI304
aI463
aI431
aI443
aI447
aI509
aI199
aI492
aI197
aI731
aI194
aI804
aI368
aI430
aI20
aI688
aI441
aI581
aI246
aI101
aI396
aI76
aI3
aI571
aI475
aI277
aI215
aI152
aI2
aI234
aI33
aI330
aI402
aI762
aI106
aI774
aI212
aI179
aI568
aI71
aI122
aI376
aI334
aI159
aI340
aI357
aI190
aI428
aI637
aI501
aI602
aI450
aI66
aI741
aI236
aI422
aI608
aI177
aI381
aI519
aI232
aI384
aI169
aI553
aI567
aI551
aI446
aI68
aI743
aI682
aI21
aI570
aI120
aI279
aI144
aI495
aI282
aI515
aI130
aI590
aI42
aI312
aI286
aI538
aI435
aI352
aI631
aI269
aI386
aI79
aI266
aI460
aI204
aI255
aI790
aI62
aI311
aI600
aI658
aI40
aI765
aI722
aI23
aI543
aI207
aI546
aI805
aI156
aI293
aI316
aI438
aI807
aI652
aI100
aI141
aI93
aI252
aI569
aI8
aI786
aI469
aI55
aI391
aI85
aI491
aI61
aI67
aI98
aI521
aI416
aI751
aI145
aI630
aI379
aI283
aI468
aI759
aI395
aI640
aI338
aI712
aI210
aI371
aI325
aI798
aI227
aI434
aI467
aI445
aI454
aI587
aI782
aI624
aI370
aI134
aI699
aI149
aI178
aI629
aI669
aI687
aI127
aI287
aI393
aI528
aI769
aI276
aI53
aI298
aI377
aI84
aI151
aI756
aI135
aI271
aI465
aI461
aI290
aI634
aI763
aI625
aI659
aI667
aI548
aI796
aI641
aI360
aI301
aI213
aI309
aI717
aI784
aI123
aI165
aI154
aI514
aI647
aI224
aI374
aI161
aI484
aI373
aI628
aI526
aI56
aI533
aI397
aI268
aI594
aI182
aI466
aI485
aI563
aI636
aI92
aI744
aI88
aI329
aI524
aI303
aI121
aI451
aI666
aI211
aI331
aI372
aI324
aI208
aI787
aI104
aI726
aI209
aI369
aI171
aI545
aI707
aI222
aI146
aI513
aI771
aI244
aI263
aI755
aI721
aI582
aI623
aI452
aI736
aI531
aI306
aI701
aI272
aI195
aI22
aI795
aI111
aI337
aI114
aI612
aI99
aI9
aI162
aI750
aI530
aI278
aI297
aI703
aI510
aI49
aI565
aI800
aI390
aI749
aI498
aI274
aI418
aI354
aI737
aI326
aI256
aI233
aI221
aI635
aI355
aI405
aI511
aI219
aI432
aI575
aI230
aI676
aI289
aI5
aI775
aI654
aI681
aI420
aI793
aI645
aI64
aI596
aI175
aI58
aI320
aI4
aI558
aI202
aI660
aI783
aI112
aI673
aI589
aI732
aI792
aI529
aI525
aI17
aI456
aI291
aI136
aI754
aI128
aI503
aI597
aI421
aI307
aI69
aI709
aI18
aI50
aI117
aI616
aI347
aI730
aI713
aI449
aI348
aI562
aI75
aI476
aI727
aI803
aI603
aI70
aI380
aI398
aI490
aI102
aI176
aI203
aI138
aI788
aI663
aI574
aI638
aI249
aI470
aI235
aI656
aI35
aI761
aI126
aI710
aI698
aI273
aI615
aI471
aI648
a.