(lp0
I6
aI334
aI159
aI306
aI246
aI118
aI121
aI281
aI294
aI296
aI31
aI321
aI112
aI243
aI147
aI348
aI197
aI142
aI196
aI193
aI315
aI24
aI139
aI73
aI86
aI214
aI175
aI81
aI93
aI55
aI11
aI317
aI66
aI26
aI280
aI178
aI205
aI195
aI300
aI299
aI130
aI245
aI240
aI218
aI85
aI327
aI113
aI305
aI209
aI163
aI104
aI69
aI273
aI109
aI331
aI289
aI14
aI107
aI350
aI332
aI183
aI259
aI260
aI106
aI247
aI222
aI20
aI314
aI167
aI95
aI47
aI234
aI199
aI182
aI181
aI215
aI323
aI233
aI174
aI103
aI254
aI125
aI311
aI325
aI339
aI347
aI292
aI220
aI263
aI77
aI15
aI153
aI89
aI80
aI313
aI351
aI166
aI32
aI49
aI98
aI310
aI275
aI91
aI119
aI326
aI203
aI61
aI58
aI333
aI57
aI297
aI128
aI123
aI355
aI51
aI171
aI54
aI13
aI65
aI223
aI200
aI293
aI227
aI9
aI345
aI328
aI42
aI249
aI48
aI271
aI145
aI270
aI12
aI278
aI338
aI224
aI16
aI43
aI117
aI248
aI3
aI83
aI319
aI186
aI349
aI236
aI206
aI88
aI284
aI129
aI70
aI261
aI75
aI226
aI114
aI229
aI239
aI204
aI79
aI25
aI228
aI232
aI285
aI41
aI4
aI76
aI354
aI302
aI276
aI116
aI143
aI176
aI185
aI155
aI67
aI115
aI19
aI84
aI135
aI45
aI286
aI202
aI160
aI170
aI56
aI262
aI341
aI282
aI235
aI28
aI172
aI295
aI279
aI173
aI336
aI344
aI146
aI283
aI320
aI250
aI216
aI208
aI105
aI340
aI94
aI120
aI22
aI189
aI257
aI192
aI330
aI309
aI151
aI87
aI316
aI40
aI168
aI335
aI133
aI108
aI343
aI304
aI30
aI272
aI219
aI241
aI303
aI329
aI97
aI38
aI29
aI34
aI131
aI138
aI161
aI137
aI64
aI23
aI191
aI265
aI132
aI17
aI256
aI238
aI164
aI312
aI291
aI149
aI342
aI18
aI35
aI21
aI144
aI184
aI301
aI122
aI210
aI157
aI324
aI36
aI7
aI110
aI124
aI322
aI62
aI10
aI169
aI298
aI198
aI266
aI244
aI237
aI318
aI126
aI225
aI134
aI213
aI287
aI152
aI33
aI290
aI127
aI8
aI90
aI165
aI353
aI68
aI253
aI207
aI212
aI141
aI44
aI162
aI177
aI140
aI308
aI37
aI136
aI194
aI268
aI78
aI337
aI53
aI252
aI1
aI82
aI46
aI60
aI352
aI59
aI63
aI150
aI154
aI50
aI230
aI264
aI180
aI217
aI269
aI158
aI187
aI111
aI201
aI242
aI2
aI92
aI99
aI190
aI277
aI148
aI188
aI27
aI100
aI72
aI71
aI5
aI96
aI74
aI258
aI211
aI221
aI156
aI255
aI231
aI179
aI307
aI52
aI39
aI274
aI101
aI267
aI102
aI251
aI288
aI346
a.