(lp0
I276
aI139
aI206
aI209
aI294
aI22
aI78
aI281
aI184
aI68
aI175
aI348
aI152
aI48
aI202
aI10
aI66
aI45
aI341
aI172
aI326
aI65
aI85
aI15
aI215
aI159
aI82
aI302
aI213
aI270
aI262
aI52
aI305
aI258
aI280
aI354
aI207
aI150
aI299
aI44
aI200
aI47
aI287
aI37
aI3
aI125
aI73
aI34
aI222
aI279
aI31
aI87
aI116
aI98
aI140
aI97
aI130
aI164
aI188
aI25
aI193
aI28
aI32
aI220
aI224
aI136
aI121
aI263
aI306
aI12
aI327
aI271
aI155
aI228
aI219
aI191
aI268
aI5
aI301
aI67
aI161
aI158
aI298
aI110
aI333
aI156
aI63
aI109
aI94
aI59
aI340
aI335
aI331
aI89
aI40
aI72
aI69
aI181
aI231
aI314
aI208
aI18
aI119
aI145
aI236
aI173
aI80
aI286
aI221
aI346
aI352
aI177
aI42
aI226
aI355
aI248
aI179
aI53
aI343
aI58
aI64
aI56
aI107
aI277
aI250
aI187
aI6
aI189
aI347
aI54
aI96
aI252
aI218
aI1
aI290
aI216
aI43
aI241
aI292
aI174
aI142
aI183
aI196
aI91
aI74
aI197
aI205
aI233
aI27
aI260
aI143
aI20
aI318
aI308
aI141
aI230
aI257
aI24
aI133
aI288
aI349
aI253
aI26
aI336
aI245
aI229
aI316
aI307
aI350
aI39
aI146
aI339
aI261
aI151
aI51
aI353
aI284
aI324
aI75
aI163
aI344
aI214
aI76
aI328
aI7
aI256
aI4
aI267
aI120
aI29
aI137
aI237
aI254
aI234
aI291
aI259
aI167
aI351
aI182
aI249
aI297
aI217
aI330
aI201
aI122
aI38
aI112
aI170
aI265
aI160
aI95
aI93
aI99
aI88
aI92
aI169
aI118
aI111
aI313
aI332
aI342
aI124
aI154
aI269
aI285
aI203
aI338
aI113
aI127
aI84
aI238
aI148
aI211
aI14
aI36
aI295
aI30
aI304
aI323
aI132
aI106
aI157
aI334
aI46
aI235
aI16
aI329
aI55
aI293
aI194
aI227
aI35
aI266
aI320
aI131
aI71
aI129
aI126
aI242
aI60
aI180
aI345
aI41
aI128
aI21
aI153
aI81
aI186
aI303
aI49
aI149
aI104
aI144
aI108
aI147
aI310
aI138
aI166
aI19
aI185
aI117
aI212
aI11
aI77
aI321
aI86
aI134
aI246
aI176
aI23
aI282
aI62
aI283
aI337
aI102
aI13
aI168
aI90
aI264
aI61
aI83
aI101
aI33
aI8
aI57
aI79
aI190
aI70
aI114
aI103
aI210
aI240
aI232
aI135
aI199
aI100
aI225
aI115
aI317
aI312
aI244
aI243
aI178
aI2
aI162
aI165
aI50
aI105
aI311
aI195
aI123
aI300
aI204
aI251
aI296
aI223
aI278
aI171
aI17
aI239
aI272
aI247
aI198
aI325
aI255
aI309
aI289
aI9
aI319
aI192
aI322
aI274
aI315
aI273
aI275
a.