(lp0
I278
aI40
aI247
aI17
aI216
aI352
aI103
aI97
aI261
aI186
aI298
aI154
aI258
aI14
aI42
aI200
aI163
aI187
aI111
aI218
aI185
aI227
aI207
aI91
aI249
aI155
aI343
aI312
aI297
aI22
aI191
aI190
aI66
aI99
aI241
aI244
aI346
aI300
aI86
aI322
aI351
aI43
aI151
aI144
aI79
aI107
aI96
aI53
aI265
aI10
aI146
aI341
aI353
aI281
aI228
aI283
aI232
aI118
aI13
aI89
aI147
aI108
aI231
aI8
aI203
aI60
aI306
aI344
aI321
aI259
aI64
aI101
aI102
aI267
aI222
aI120
aI168
aI271
aI135
aI164
aI105
aI336
aI340
aI196
aI317
aI143
aI27
aI36
aI12
aI286
aI188
aI169
aI156
aI288
aI248
aI273
aI7
aI67
aI349
aI347
aI239
aI124
aI129
aI39
aI117
aI323
aI31
aI128
aI339
aI253
aI235
aI2
aI181
aI171
aI294
aI49
aI162
aI204
aI59
aI37
aI78
aI303
aI287
aI183
aI255
aI213
aI250
aI104
aI153
aI137
aI272
aI327
aI23
aI140
aI313
aI54
aI55
aI275
aI16
aI355
aI177
aI221
aI80
aI81
aI69
aI292
aI65
aI44
aI350
aI11
aI131
aI337
aI161
aI116
aI119
aI172
aI324
aI3
aI338
aI279
aI134
aI138
aI68
aI295
aI266
aI178
aI30
aI189
aI345
aI74
aI83
aI139
aI173
aI34
aI277
aI291
aI226
aI243
aI76
aI56
aI114
aI309
aI242
aI25
aI217
aI82
aI70
aI28
aI326
aI348
aI328
aI166
aI170
aI197
aI193
aI133
aI24
aI334
aI230
aI184
aI270
aI47
aI264
aI305
aI333
aI302
aI282
aI211
aI113
aI160
aI33
aI20
aI263
aI61
aI316
aI18
aI57
aI41
aI84
aI208
aI210
aI125
aI308
aI260
aI152
aI262
aI240
aI238
aI6
aI126
aI195
aI234
aI127
aI330
aI212
aI19
aI75
aI257
aI296
aI132
aI331
aI219
aI214
aI293
aI201
aI354
aI225
aI90
aI223
aI87
aI229
aI320
aI150
aI192
aI157
aI98
aI136
aI246
aI202
aI299
aI106
aI335
aI179
aI26
aI167
aI332
aI94
aI88
aI45
aI268
aI175
aI72
aI77
aI304
aI130
aI50
aI290
aI280
aI314
aI215
aI4
aI73
aI237
aI182
aI121
aI93
aI274
aI252
aI63
aI148
aI122
aI245
aI142
aI71
aI21
aI159
aI233
aI251
aI194
aI1
aI9
aI85
aI269
aI206
aI112
aI254
aI109
aI145
aI329
aI46
aI285
aI307
aI205
aI311
aI62
aI29
aI209
aI38
aI32
aI51
aI284
aI342
aI276
aI165
aI58
aI141
aI48
aI199
aI289
aI176
aI15
aI174
aI315
aI224
aI318
aI198
aI100
aI95
aI35
aI92
aI236
aI110
aI310
aI149
aI220
aI123
aI5
aI319
aI180
aI52
aI325
aI158
aI115
aI256
aI301
a.