(lp0
I162
aI138
aI76
aI142
aI141
aI139
aI140
aI167
aI184
aI204
aI201
aI173
aI185
aI221
aI207
aI174
aI220
aI172
aI200
aI175
aI178
aI75
aI13
aI208
aI5
aI43
aI89
aI95
aI84
aI94
aI91
aI93
aI92
aI71
aI72
aI153
aI79
aI80
aI90
aI86
aI87
aI70
aI85
aI217
aI209
aI30
aI36
aI202
aI222
aI159
aI145
aI82
aI150
aI166
aI213
aI152
aI214
aI212
aI176
aI187
aI164
aI168
aI46
aI265
aI157
aI163
aI227
aI73
aI181
aI196
aI195
aI210
aI160
aI186
aI170
aI182
aI25
aI215
aI211
aI165
aI216
aI219
aI199
aI197
aI194
aI158
aI81
aI177
aI218
aI179
aI180
aI169
aI205
aI228
aI206
aI130
aI189
aI149
aI156
aI88
aI39
aI143
aI29
aI314
aI19
aI31
aI18
aI24
aI44
aI147
aI33
aI223
aI35
aI78
aI230
aI50
aI224
aI229
aI226
aI83
aI334
aI312
aI56
aI161
aI350
aI77
aI349
aI289
aI146
aI137
aI16
aI286
aI133
aI326
aI49
aI319
aI246
aI151
aI2
aI144
aI9
aI260
aI12
aI310
aI311
aI55
aI51
aI21
aI98
aI263
aI231
aI259
aI251
aI47
aI253
aI322
aI41
aI288
aI347
aI3
aI136
aI23
aI53
aI104
aI315
aI252
aI336
aI341
aI320
aI275
aI280
aI225
aI59
aI353
aI248
aI352
aI340
aI337
aI20
aI11
aI38
aI346
aI254
aI131
aI57
aI276
aI291
aI106
aI293
aI281
aI304
aI127
aI295
aI128
aI272
aI1
aI273
aI10
aI132
aI193
aI287
aI191
aI129
aI327
aI247
aI27
aI8
aI134
aI4
aI301
aI243
aI303
aI261
aI63
aI148
aI74
aI249
aI306
aI331
aI300
aI125
aI48
aI330
aI62
aI135
aI266
aI61
aI126
aI109
aI116
aI114
aI284
aI268
aI296
aI325
aI124
aI123
aI120
aI122
aI302
aI121
aI118
aI65
aI245
aI117
aI298
aI278
aI28
aI244
aI270
aI97
aI324
aI119
aI235
aI238
aI113
aI7
aI60
aI318
aI111
aI342
aI313
aI102
aI52
aI269
aI345
aI282
aI239
aI294
aI316
aI309
aI155
aI250
aI236
aI96
aI108
aI101
aI64
aI112
aI45
aI305
aI332
aI329
aI335
aI107
aI6
aI262
aI339
aI328
aI351
aI279
aI323
aI54
aI58
aI285
aI267
aI67
aI234
aI232
aI110
aI233
aI99
aI241
aI37
aI307
aI32
aI242
aI237
aI105
aI34
aI100
aI271
aI333
aI69
aI344
aI290
aI190
aI348
aI15
aI22
aI317
aI292
aI321
aI14
aI66
aI17
aI68
aI171
aI188
aI198
aI103
aI274
aI355
aI26
aI40
aI354
aI192
aI308
aI338
aI297
aI283
aI277
aI154
aI343
aI257
aI256
aI264
aI255
aI258
aI203
aI183
aI240
aI299
aI115
aI42
a.