(lp0
I149
aI60
aI209
aI173
aI198
aI154
aI166
aI164
aI3
aI65
aI13
aI20
aI123
aI179
aI156
aI9
aI163
aI97
aI49
aI174
aI136
aI150
aI4
aI30
aI52
aI42
aI43
aI2
aI1
aI6
aI5
aI50
aI55
aI51
aI44
aI165
aI200
aI204
aI175
aI213
aI48
aI157
aI134
aI73
aI190
aI155
aI119
aI78
aI21
aI26
aI81
aI29
aI98
aI124
aI162
aI90
aI189
aI39
aI126
aI203
aI114
aI80
aI111
aI167
aI102
aI41
aI147
aI170
aI69
aI186
aI145
aI63
aI152
aI57
aI53
aI94
aI35
aI143
aI187
aI181
aI122
aI71
aI127
aI76
aI56
aI161
aI121
aI180
aI193
aI86
aI107
aI58
aI160
aI117
aI77
aI182
aI82
aI67
aI108
aI171
aI61
aI185
aI139
aI110
aI135
aI183
aI32
aI214
aI125
aI40
aI66
aI47
aI95
aI104
aI194
aI178
aI132
aI109
aI12
aI36
aI211
aI88
aI8
aI192
aI113
aI202
aI137
aI84
aI74
aI19
aI112
aI101
aI138
aI7
aI79
aI54
aI27
aI31
aI89
aI34
aI201
aI172
aI93
aI15
aI116
aI130
aI141
aI100
aI176
aI115
aI168
aI133
aI158
aI148
aI197
aI195
aI45
aI96
aI33
aI128
aI87
aI129
aI146
aI196
aI99
aI144
aI191
aI105
aI184
aI75
aI142
aI199
aI70
aI208
aI59
aI25
aI17
aI120
aI18
aI106
aI62
aI64
aI72
aI92
aI151
aI83
aI85
aI153
aI37
aI140
aI210
aI24
aI91
aI68
aI16
aI38
aI159
aI118
aI131
aI206
aI188
aI46
aI169
aI212
aI14
aI103
aI23
aI11
aI177
aI10
aI205
aI207
aI28
aI22
a.