(lp0
I37
aI48
aI5
aI1
aI108
aI62
aI58
aI158
aI198
aI130
aI49
aI69
aI141
aI4
aI191
aI12
aI73
aI17
aI142
aI135
aI184
aI25
aI171
aI202
aI45
aI84
aI88
aI172
aI183
aI82
aI66
aI126
aI132
aI87
aI113
aI118
aI206
aI119
aI166
aI10
aI128
aI61
aI205
aI26
aI78
aI211
aI83
aI32
aI163
aI212
aI164
aI81
aI92
aI169
aI161
aI97
aI63
aI23
aI90
aI210
aI144
aI121
aI120
aI182
aI86
aI15
aI165
aI208
aI145
aI65
aI95
aI30
aI207
aI27
aI153
aI11
aI109
aI105
aI196
aI40
aI156
aI111
aI192
aI149
aI16
aI102
aI14
aI34
aI152
aI29
aI129
aI98
aI51
aI70
aI143
aI104
aI44
aI85
aI55
aI100
aI151
aI38
aI2
aI106
aI162
aI31
aI133
aI93
aI123
aI76
aI99
aI96
aI125
aI116
aI177
aI64
aI75
aI194
aI8
aI148
aI124
aI107
aI200
aI203
aI155
aI204
aI190
aI52
aI67
aI137
aI39
aI24
aI20
aI147
aI176
aI68
aI7
aI160
aI134
aI167
aI174
aI91
aI6
aI114
aI47
aI122
aI33
aI185
aI43
aI181
aI56
aI42
aI146
aI77
aI28
aI195
aI53
aI136
aI72
aI189
aI127
aI157
aI199
aI186
aI80
aI41
aI175
aI201
aI74
aI9
aI101
aI60
aI197
aI71
aI46
aI89
aI57
aI178
aI214
aI138
aI115
aI173
aI131
aI35
aI59
aI21
aI22
aI50
aI193
aI168
aI18
aI3
aI140
aI117
aI187
aI54
aI188
aI94
aI36
aI180
aI19
aI179
aI112
aI209
aI170
aI154
aI13
aI150
aI159
aI213
aI139
aI110
aI103
aI79
a.