(lp0
I143
aI148
aI58
aI105
aI45
aI186
aI20
aI23
aI101
aI88
aI110
aI5
aI142
aI86
aI207
aI158
aI180
aI140
aI60
aI47
aI76
aI80
aI93
aI57
aI72
aI73
aI160
aI199
aI79
aI211
aI102
aI52
aI43
aI89
aI198
aI182
aI170
aI184
aI147
aI108
aI157
aI25
aI109
aI150
aI126
aI153
aI82
aI11
aI36
aI18
aI200
aI188
aI152
aI24
aI129
aI77
aI131
aI30
aI74
aI205
aI118
aI121
aI197
aI106
aI48
aI116
aI17
aI70
aI84
aI64
aI213
aI21
aI92
aI38
aI137
aI63
aI192
aI29
aI107
aI100
aI209
aI189
aI6
aI49
aI12
aI33
aI187
aI159
aI214
aI167
aI169
aI165
aI41
aI115
aI55
aI178
aI204
aI210
aI164
aI35
aI42
aI50
aI87
aI128
aI39
aI40
aI54
aI56
aI4
aI96
aI66
aI120
aI97
aI114
aI123
aI144
aI130
aI201
aI183
aI134
aI31
aI162
aI139
aI185
aI122
aI91
aI9
aI125
aI15
aI83
aI10
aI112
aI78
aI196
aI206
aI28
aI172
aI127
aI94
aI71
aI117
aI190
aI145
aI7
aI85
aI32
aI136
aI19
aI75
aI175
aI81
aI44
aI155
aI138
aI68
aI59
aI51
aI34
aI156
aI208
aI95
aI104
aI119
aI151
aI154
aI22
aI166
aI179
aI8
aI173
aI194
aI203
aI176
aI27
aI3
aI26
aI14
aI62
aI193
aI16
aI181
aI161
aI69
aI171
aI67
aI132
aI1
aI149
aI113
aI141
aI146
aI13
aI99
aI195
aI174
aI37
aI177
aI65
aI212
aI133
aI124
aI168
aI61
aI111
aI202
aI103
aI46
aI90
aI191
aI53
aI98
aI163
aI2
aI135
a.