(lp0
I18
aI23
aI51
aI6
aI4
aI50
aI1
aI43
aI44
aI40
aI42
aI63
aI10
aI19
aI5
aI41
aI3
aI2
aI121
aI159
aI118
aI202
aI156
aI164
aI142
aI64
aI136
aI165
aI79
aI77
aI139
aI78
aI163
aI183
aI182
aI144
aI162
aI176
aI61
aI197
aI76
aI56
aI15
aI103
aI101
aI25
aI200
aI17
aI57
aI28
aI141
aI122
aI125
aI7
aI100
aI181
aI60
aI179
aI82
aI201
aI116
aI120
aI32
aI199
aI97
aI27
aI123
aI96
aI84
aI138
aI98
aI205
aI140
aI104
aI83
aI160
aI29
aI65
aI31
aI59
aI158
aI13
aI21
aI124
aI185
aI143
aI145
aI58
aI137
aI204
aI81
aI62
aI180
aI30
aI24
aI178
aI117
aI177
aI105
aI99
aI102
aI184
aI196
aI157
aI85
aI161
aI119
aI33
aI198
aI80
aI34
aI203
aI173
aI72
aI14
aI174
aI132
aI110
aI206
aI54
aI66
aI89
aI8
aI166
aI169
aI93
aI193
aI190
aI150
aI113
aI49
aI39
aI11
aI133
aI154
aI115
aI195
aI22
aI71
aI73
aI147
aI188
aI209
aI106
aI75
aI35
aI36
aI92
aI69
aI94
aI208
aI9
aI168
aI26
aI91
aI148
aI207
aI53
aI55
aI167
aI172
aI189
aI114
aI130
aI70
aI107
aI16
aI108
aI20
aI86
aI175
aI37
aI67
aI48
aI191
aI88
aI126
aI192
aI87
aI135
aI170
aI68
aI112
aI213
aI111
aI52
aI186
aI134
aI210
aI109
aI211
aI212
aI46
aI90
aI12
aI214
aI38
aI194
aI95
aI153
aI146
aI152
aI45
aI171
aI129
aI155
aI74
aI128
aI131
aI127
aI151
aI149
aI47
aI187
a.