(lp0
I66
aI195
aI261
aI139
aI272
aI251
aI116
aI285
aI54
aI63
aI322
aI99
aI262
aI124
aI109
aI48
aI184
aI115
aI92
aI87
aI290
aI171
aI362
aI267
aI334
aI243
aI351
aI148
aI94
aI175
aI35
aI197
aI71
aI44
aI173
aI120
aI145
aI155
aI333
aI278
aI144
aI2
aI323
aI357
aI294
aI368
aI330
aI298
aI340
aI142
aI17
aI230
aI295
aI328
aI74
aI81
aI27
aI339
aI76
aI46
aI353
aI97
aI36
aI72
aI104
aI112
aI201
aI204
aI308
aI29
aI257
aI354
aI260
aI356
aI293
aI212
aI170
aI284
aI157
aI198
aI256
aI96
aI289
aI166
aI174
aI280
aI183
aI125
aI286
aI367
aI34
aI360
aI106
aI270
aI49
aI152
aI316
aI223
aI84
aI95
aI1
aI202
aI13
aI20
aI149
aI122
aI252
aI310
aI126
aI319
aI160
aI128
aI129
aI5
aI168
aI138
aI276
aI62
aI350
aI255
aI32
aI7
aI42
aI10
aI300
aI237
aI57
aI187
aI301
aI279
aI162
aI69
aI101
aI231
aI331
aI238
aI31
aI317
aI21
aI30
aI326
aI6
aI337
aI200
aI47
aI273
aI186
aI28
aI318
aI335
aI288
aI161
aI39
aI332
aI365
aI56
aI113
aI275
aI245
aI111
aI163
aI19
aI241
aI327
aI305
aI24
aI60
aI146
aI147
aI52
aI358
aI167
aI40
aI266
aI303
aI240
aI89
aI338
aI220
aI85
aI67
aI259
aI355
aI100
aI136
aI232
aI344
aI185
aI118
aI79
aI226
aI258
aI324
aI165
aI235
aI121
aI210
aI282
aI347
aI254
aI37
aI41
aI299
aI215
aI206
aI176
aI82
aI219
aI222
aI55
aI4
aI18
aI178
aI244
aI311
aI153
aI250
aI346
aI59
aI93
aI141
aI239
aI271
aI16
aI216
aI248
aI156
aI314
aI180
aI341
aI321
aI227
aI229
aI107
aI140
aI274
aI179
aI91
aI117
aI53
aI103
aI209
aI51
aI247
aI309
aI217
aI249
aI90
aI22
aI127
aI192
aI291
aI132
aI70
aI50
aI304
aI177
aI370
aI83
aI366
aI224
aI199
aI296
aI348
aI108
aI25
aI188
aI189
aI150
aI158
aI225
aI3
aI265
aI105
aI363
aI369
aI313
aI268
aI221
aI205
aI194
aI131
aI228
aI102
aI43
aI88
aI143
aI15
aI191
aI151
aI359
aI297
aI73
aI9
aI203
aI281
aI218
aI172
aI277
aI302
aI65
aI98
aI133
aI325
aI38
aI336
aI345
aI364
aI190
aI14
aI64
aI33
aI342
aI86
aI75
aI214
aI283
aI211
aI12
aI269
aI196
aI8
aI361
aI78
aI110
aI312
aI287
aI119
aI253
aI61
aI135
aI264
aI169
aI234
aI45
aI307
aI306
aI123
aI159
aI207
aI164
aI246
aI329
aI137
aI80
aI242
aI58
aI315
aI182
aI343
aI320
aI193
aI68
aI134
aI263
aI114
aI26
aI236
aI181
aI213
aI352
aI130
aI292
aI233
aI11
aI208
aI154
aI23
aI77
aI349
a.