(lp0
I163
aI232
aI107
aI204
aI237
aI369
aI249
aI123
aI118
aI14
aI367
aI73
aI235
aI364
aI143
aI339
aI282
aI27
aI349
aI22
aI322
aI357
aI264
aI72
aI45
aI336
aI248
aI152
aI178
aI158
aI194
aI195
aI356
aI181
aI41
aI144
aI280
aI341
aI270
aI31
aI196
aI261
aI262
aI359
aI203
aI366
aI58
aI315
aI309
aI278
aI166
aI17
aI255
aI240
aI145
aI57
aI275
aI59
aI318
aI191
aI289
aI321
aI323
aI3
aI265
aI112
aI60
aI76
aI269
aI215
aI354
aI299
aI8
aI43
aI182
aI25
aI122
aI283
aI124
aI55
aI35
aI228
aI170
aI108
aI78
aI184
aI273
aI179
aI213
aI127
aI69
aI37
aI7
aI44
aI46
aI80
aI305
aI274
aI29
aI159
aI291
aI99
aI197
aI10
aI331
aI120
aI242
aI186
aI28
aI302
aI368
aI104
aI297
aI329
aI234
aI304
aI266
aI139
aI157
aI15
aI267
aI150
aI133
aI358
aI39
aI202
aI75
aI243
aI94
aI342
aI32
aI161
aI98
aI295
aI361
aI208
aI18
aI19
aI125
aI286
aI66
aI201
aI42
aI79
aI183
aI24
aI56
aI121
aI281
aI252
aI33
aI100
aI325
aI360
aI40
aI137
aI268
aI138
aI116
aI343
aI352
aI4
aI296
aI169
aI148
aI216
aI319
aI54
aI254
aI95
aI65
aI1
aI67
aI303
aI306
aI88
aI147
aI284
aI277
aI222
aI256
aI96
aI162
aI258
aI259
aI227
aI110
aI174
aI294
aI87
aI140
aI82
aI239
aI209
aI338
aI154
aI251
aI245
aI253
aI246
aI192
aI128
aI224
aI135
aI200
aI153
aI81
aI207
aI334
aI23
aI320
aI97
aI355
aI141
aI206
aI188
aI180
aI250
aI276
aI61
aI160
aI131
aI293
aI263
aI236
aI111
aI241
aI313
aI307
aI85
aI225
aI353
aI71
aI136
aI362
aI330
aI26
aI244
aI173
aI109
aI230
aI34
aI101
aI6
aI199
aI370
aI347
aI300
aI310
aI47
aI260
aI168
aI12
aI77
aI13
aI217
aI146
aI346
aI51
aI219
aI130
aI70
aI11
aI205
aI238
aI272
aI91
aI83
aI221
aI223
aI74
aI171
aI333
aI16
aI49
aI340
aI50
aI52
aI117
aI86
aI64
aI337
aI316
aI106
aI335
aI113
aI185
aI247
aI92
aI351
aI288
aI176
aI229
aI326
aI9
aI48
aI211
aI348
aI190
aI151
aI36
aI103
aI301
aI271
aI177
aI218
aI126
aI220
aI285
aI350
aI5
aI198
aI327
aI105
aI308
aI312
aI345
aI279
aI149
aI93
aI292
aI38
aI165
aI134
aI231
aI344
aI89
aI298
aI156
aI62
aI193
aI114
aI63
aI210
aI115
aI311
aI90
aI187
aI30
aI287
aI129
aI290
aI226
aI328
aI233
aI189
aI175
aI84
aI317
aI119
aI257
aI2
aI164
aI68
aI102
aI167
aI155
aI212
aI21
aI365
aI324
aI132
aI172
aI363
aI332
aI314
aI20
aI53
aI214
aI142
a.