(lp0
I370
aI30
aI31
aI367
aI185
aI186
aI149
aI188
aI187
aI151
aI150
aI152
aI190
aI154
aI156
aI328
aI192
aI309
aI310
aI327
aI189
aI203
aI201
aI169
aI171
aI170
aI289
aI115
aI333
aI116
aI166
aI325
aI167
aI28
aI316
aI168
aI326
aI114
aI172
aI315
aI113
aI165
aI334
aI290
aI307
aI292
aI291
aI308
aI335
aI27
aI317
aI336
aI200
aI318
aI119
aI118
aI120
aI332
aI212
aI191
aI197
aI52
aI134
aI313
aI215
aI162
aI155
aI216
aI163
aI314
aI214
aI331
aI164
aI117
aI161
aI199
aI153
aI205
aI211
aI198
aI130
aI361
aI133
aI218
aI213
aI136
aI219
aI129
aI220
aI217
aI131
aI132
aI135
aI340
aI320
aI208
aI297
aI319
aI298
aI174
aI300
aI207
aI176
aI206
aI173
aI337
aI338
aI175
aI341
aI304
aI342
aI139
aI363
aI128
aI126
aI125
aI140
aI137
aI138
aI127
aI294
aI301
aI122
aI123
aI160
aI312
aI143
aI330
aI293
aI329
aI157
aI195
aI196
aI311
aI193
aI302
aI50
aI158
aI6
aI121
aI194
aI159
aI144
aI124
aI177
aI322
aI362
aI99
aI64
aI100
aI142
aI98
aI299
aI321
aI179
aI339
aI97
aI178
aI272
aI180
aI62
aI29
aI343
aI141
aI40
aI210
aI61
aI271
aI344
aI63
aI202
aI204
aI252
aI254
aI253
aI66
aI68
aI266
aI244
aI65
aI258
aI257
aI265
aI284
aI243
aI67
aI306
aI101
aI103
aI276
aI368
aI283
aI102
aI303
aI104
aI209
aI145
aI147
aI75
aI305
aI146
aI76
aI226
aI227
aI110
aI148
aI73
aI111
aI275
aI109
aI74
aI225
aI228
aI348
aI184
aI323
aI264
aI345
aI353
aI251
aI347
aI250
aI38
aI281
aI89
aI39
aI91
aI92
aI263
aI181
aI90
aI182
aI223
aI221
aI346
aI224
aI282
aI222
aI183
aI324
aI44
aI364
aI241
aI41
aI79
aI8
aI112
aI78
aI43
aI242
aI42
aI366
aI80
aI77
aI10
aI16
aI230
aI35
aI369
aI232
aI365
aI7
aI34
aI229
aI231
aI9
aI354
aI356
aI249
aI295
aI37
aI296
aI256
aI53
aI83
aI255
aI55
aI56
aI233
aI81
aI273
aI26
aI235
aI236
aI82
aI23
aI96
aI49
aI88
aI24
aI84
aI54
aI234
aI94
aI274
aI93
aI58
aI33
aI85
aI87
aI86
aI59
aI95
aI20
aI57
aI25
aI22
aI60
aI355
aI36
aI32
aI18
aI280
aI262
aI261
aI45
aI279
aI47
aI46
aI48
aI352
aI277
aI278
aI259
aI260
aI51
aI239
aI238
aI237
aI240
aI107
aI69
aI108
aI105
aI72
aI71
aI351
aI70
aI106
aI19
aI349
aI350
aI286
aI285
aI246
aI357
aI268
aI358
aI245
aI267
aI247
aI248
aI288
aI269
aI287
aI360
aI270
aI359
aI21
aI17
aI13
aI1
aI2
aI12
aI5
aI11
aI3
aI4
aI14
aI15
a.