(lp0
I370
aI17
aI368
aI40
aI11
aI42
aI60
aI90
aI369
aI196
aI198
aI296
aI297
aI341
aI357
aI172
aI347
aI344
aI180
aI35
aI155
aI311
aI319
aI206
aI65
aI200
aI175
aI13
aI76
aI144
aI106
aI345
aI204
aI66
aI295
aI2
aI100
aI223
aI212
aI224
aI10
aI81
aI126
aI340
aI286
aI342
aI300
aI267
aI262
aI355
aI277
aI135
aI31
aI203
aI57
aI228
aI72
aI143
aI69
aI337
aI184
aI245
aI282
aI82
aI113
aI271
aI361
aI178
aI74
aI62
aI71
aI285
aI233
aI111
aI107
aI231
aI313
aI127
aI321
aI89
aI61
aI38
aI353
aI91
aI55
aI1
aI33
aI359
aI109
aI303
aI268
aI348
aI193
aI249
aI78
aI320
aI263
aI116
aI269
aI239
aI244
aI23
aI241
aI251
aI354
aI281
aI41
aI27
aI58
aI162
aI160
aI336
aI117
aI26
aI227
aI225
aI86
aI164
aI330
aI191
aI331
aI64
aI53
aI236
aI323
aI6
aI94
aI49
aI280
aI258
aI309
aI235
aI339
aI278
aI63
aI36
aI246
aI222
aI208
aI363
aI302
aI97
aI129
aI154
aI99
aI137
aI242
aI159
aI210
aI46
aI136
aI146
aI291
aI290
aI183
aI92
aI276
aI260
aI177
aI362
aI190
aI120
aI219
aI114
aI261
aI79
aI15
aI334
aI187
aI226
aI165
aI322
aI14
aI48
aI87
aI256
aI186
aI332
aI328
aI51
aI335
aI352
aI3
aI83
aI365
aI56
aI24
aI254
aI279
aI39
aI147
aI158
aI170
aI4
aI329
aI18
aI221
aI73
aI218
aI45
aI167
aI234
aI96
aI140
aI163
aI238
aI358
aI215
aI272
aI266
aI252
aI141
aI248
aI59
aI305
aI169
aI316
aI122
aI275
aI142
aI195
aI121
aI103
aI298
aI367
aI211
aI338
aI294
aI194
aI115
aI253
aI68
aI145
aI119
aI37
aI350
aI132
aI346
aI12
aI237
aI124
aI283
aI52
aI80
aI333
aI255
aI214
aI149
aI314
aI364
aI110
aI171
aI192
aI9
aI85
aI324
aI16
aI220
aI197
aI152
aI310
aI131
aI34
aI292
aI174
aI317
aI112
aI199
aI88
aI265
aI299
aI264
aI5
aI123
aI213
aI307
aI216
aI250
aI70
aI327
aI130
aI356
aI205
aI343
aI125
aI29
aI207
aI351
aI201
aI8
aI349
aI189
aI108
aI151
aI293
aI25
aI139
aI243
aI181
aI176
aI47
aI257
aI185
aI270
aI157
aI102
aI21
aI179
aI289
aI128
aI168
aI28
aI67
aI95
aI366
aI209
aI54
aI325
aI138
aI150
aI182
aI161
aI288
aI133
aI148
aI230
aI153
aI247
aI104
aI77
aI326
aI217
aI306
aI118
aI312
aI7
aI44
aI101
aI20
aI50
aI188
aI273
aI318
aI84
aI360
aI32
aI173
aI304
aI308
aI98
aI232
aI274
aI22
aI105
aI156
aI259
aI134
aI75
aI30
aI202
aI315
aI166
aI287
aI240
aI19
aI93
aI301
aI43
aI284
aI229
a.