(lp0
I128
aI553
aI431
aI502
aI598
aI549
aI623
aI573
aI67
aI106
aI276
aI289
aI13
aI311
aI648
aI189
aI613
aI493
aI627
aI642
aI149
aI608
aI34
aI456
aI408
aI605
aI552
aI576
aI177
aI308
aI40
aI617
aI521
aI630
aI135
aI530
aI21
aI41
aI484
aI517
aI420
aI577
aI30
aI240
aI433
aI414
aI541
aI317
aI182
aI460
aI145
aI250
aI670
aI463
aI54
aI461
aI281
aI242
aI305
aI562
aI593
aI181
aI658
aI266
aI631
aI550
aI474
aI158
aI198
aI87
aI251
aI24
aI389
aI161
aI2
aI212
aI108
aI365
aI70
aI331
aI119
aI482
aI477
aI574
aI381
aI144
aI663
aI300
aI279
aI363
aI538
aI336
aI201
aI624
aI261
aI615
aI288
aI443
aI449
aI635
aI48
aI641
aI28
aI534
aI115
aI124
aI371
aI47
aI455
aI403
aI540
aI581
aI160
aI183
aI425
aI258
aI53
aI322
aI25
aI141
aI429
aI273
aI356
aI563
aI445
aI619
aI214
aI217
aI42
aI169
aI277
aI653
aI246
aI91
aI66
aI646
aI667
aI564
aI543
aI544
aI204
aI260
aI80
aI304
aI343
aI364
aI422
aI411
aI86
aI439
aI633
aI651
aI12
aI37
aI575
aI560
aI55
aI467
aI448
aI369
aI294
aI441
aI430
aI274
aI586
aI291
aI373
aI547
aI472
aI133
aI519
aI75
aI164
aI357
aI244
aI385
aI499
aI309
aI51
aI252
aI516
aI243
aI350
aI661
aI23
aI488
aI349
aI475
aI400
aI599
aI112
aI306
aI659
aI16
aI32
aI109
aI184
aI256
aI629
aI625
aI465
aI7
aI513
aI269
aI285
aI64
aI660
aI402
aI501
aI354
aI579
aI134
aI447
aI61
aI421
aI216
aI546
aI15
aI6
aI584
aI127
aI301
aI172
aI434
aI650
aI11
aI36
aI226
aI318
aI293
aI423
aI645
aI503
aI325
aI58
aI257
aI607
aI33
aI292
aI140
aI27
aI71
aI525
aI297
aI76
aI165
aI406
aI131
aI393
aI568
aI545
aI442
aI267
aI139
aI88
aI190
aI320
aI638
aI263
aI56
aI238
aI480
aI4
aI35
aI152
aI583
aI419
aI395
aI46
aI170
aI654
aI489
aI218
aI570
aI167
aI522
aI585
aI94
aI601
aI120
aI210
aI557
aI153
aI361
aI486
aI526
aI412
aI69
aI307
aI65
aI270
aI213
aI122
aI333
aI31
aI236
aI508
aI146
aI162
aI481
aI123
aI180
aI44
aI478
aI512
aI639
aI186
aI227
aI143
aI156
aI129
aI72
aI604
aI237
aI662
aI466
aI280
aI554
aI569
aI565
aI10
aI207
aI527
aI18
aI649
aI60
aI84
aI176
aI296
aI107
aI647
aI39
aI451
aI323
aI235
aI394
aI347
aI589
aI136
aI588
aI299
aI74
aI595
aI582
aI52
aI286
aI450
aI558
aI43
aI377
aI437
aI93
aI340
aI610
aI82
aI539
aI302
aI505
aI191
aI342
aI179
aI116
aI68
aI609
aI328
aI496
aI666
aI614
aI399
aI8
aI151
aI100
aI435
aI298
aI199
aI602
aI85
aI533
aI506
aI383
aI479
aI249
aI138
aI241
aI303
aI606
aI312
aI147
aI401
aI230
aI514
aI590
aI511
aI348
aI457
aI118
aI111
aI224
aI334
aI103
aI335
aI319
aI5
aI551
aI92
aI62
aI63
aI510
aI220
aI398
aI344
aI157
aI96
aI20
aI19
aI404
aI375
aI327
aI59
aI83
aI537
aI117
aI603
aI345
aI255
aI295
aI611
aI529
aI168
aI9
aI99
aI338
aI438
aI187
aI452
aI494
aI265
aI351
aI282
aI366
aI310
aI405
aI316
aI390
aI668
aI664
aI597
aI413
aI509
aI154
aI618
aI321
aI384
aI97
aI248
aI572
aI232
aI101
aI159
aI355
aI130
aI200
aI536
aI137
aI174
aI415
aI50
aI372
aI382
aI231
aI254
aI233
aI427
aI22
aI209
aI500
aI483
aI222
aI105
aI81
aI432
aI497
aI253
aI155
aI196
aI468
aI370
aI386
aI195
aI287
aI79
aI528
aI329
aI632
aI332
aI428
aI278
aI239
aI637
aI219
aI362
aI464
aI485
aI391
aI104
aI125
aI73
aI524
aI594
aI121
aI367
aI89
aI380
aI110
aI3
aI38
aI556
aI102
aI424
aI178
aI507
aI458
aI206
aI175
aI622
aI657
aI142
aI476
aI578
aI542
aI636
aI171
aI418
aI14
aI620
aI492
aI203
aI337
aI591
aI262
aI324
aI211
aI640
aI566
aI462
aI114
aI223
aI197
aI126
aI587
aI98
aI656
aI247
aI45
aI498
aI193
aI515
aI215
aI644
aI487
aI228
aI90
aI471
aI188
aI95
aI592
aI368
aI346
aI148
aI283
aI185
aI444
aI518
aI600
aI315
aI132
aI290
aI426
aI652
aI459
aI532
aI436
aI634
aI495
aI49
aI77
aI655
aI150
aI202
aI392
aI596
aI326
aI26
aI163
aI264
aI205
aI410
aI166
aI192
aI360
aI352
aI397
aI409
aI229
aI359
aI561
aI113
aI626
aI621
aI417
aI446
aI268
aI194
aI628
aI221
aI616
aI245
aI173
aI559
aI272
aI271
aI440
aI387
aI523
aI379
aI1
aI669
aI314
aI225
aI407
aI284
aI330
aI17
aI78
aI388
aI353
aI57
aI376
aI490
aI555
aI548
aI313
aI473
aI612
aI396
aI470
aI571
aI469
aI520
aI234
aI208
aI531
aI275
aI378
aI259
aI416
aI453
aI374
aI491
aI358
aI29
aI535
aI567
aI504
aI339
aI665
aI643
aI341
aI580
aI454
a.