(lp0
I65
aI364
aI391
aI471
aI103
aI583
aI443
aI601
aI265
aI532
aI69
aI359
aI52
aI251
aI332
aI475
aI152
aI658
aI387
aI445
aI182
aI40
aI428
aI366
aI88
aI415
aI599
aI541
aI287
aI233
aI510
aI606
aI607
aI602
aI425
aI159
aI2
aI247
aI191
aI479
aI401
aI97
aI546
aI273
aI102
aI460
aI125
aI423
aI561
aI640
aI30
aI642
aI631
aI592
aI375
aI663
aI301
aI416
aI495
aI226
aI522
aI123
aI229
aI149
aI511
aI231
aI89
aI86
aI381
aI289
aI625
aI504
aI222
aI452
aI662
aI578
aI157
aI79
aI118
aI238
aI507
aI209
aI635
aI10
aI399
aI80
aI4
aI34
aI220
aI365
aI384
aI243
aI121
aI303
aI68
aI203
aI531
aI145
aI575
aI295
aI617
aI430
aI539
aI514
aI206
aI310
aI643
aI180
aI493
aI506
aI515
aI339
aI74
aI259
aI140
aI134
aI82
aI258
aI527
aI523
aI292
aI371
aI496
aI87
aI119
aI308
aI374
aI293
aI489
aI341
aI338
aI260
aI590
aI161
aI27
aI107
aI498
aI453
aI96
aI464
aI469
aI363
aI558
aI148
aI516
aI572
aI43
aI262
aI598
aI413
aI593
aI237
aI35
aI54
aI245
aI505
aI166
aI441
aI235
aI350
aI5
aI138
aI330
aI105
aI42
aI28
aI109
aI517
aI128
aI373
aI653
aI378
aI288
aI252
aI334
aI567
aI402
aI349
aI619
aI544
aI457
aI90
aI335
aI7
aI264
aI26
aI370
aI175
aI570
aI455
aI465
aI509
aI560
aI178
aI135
aI538
aI454
aI434
aI146
aI164
aI584
aI587
aI502
aI282
aI162
aI397
aI193
aI450
aI23
aI49
aI670
aI331
aI435
aI200
aI190
aI204
aI215
aI302
aI382
aI487
aI395
aI427
aI458
aI47
aI114
aI274
aI353
aI347
aI216
aI581
aI490
aI255
aI379
aI630
aI100
aI655
aI494
aI281
aI15
aI130
aI326
aI218
aI104
aI521
aI253
aI669
aI518
aI526
aI1
aI633
aI614
aI141
aI407
aI319
aI333
aI659
aI564
aI76
aI196
aI389
aI217
aI645
aI431
aI117
aI62
aI309
aI213
aI195
aI113
aI459
aI98
aI586
aI320
aI632
aI73
aI654
aI192
aI156
aI528
aI636
aI46
aI595
aI568
aI31
aI127
aI563
aI484
aI71
aI198
aI60
aI6
aI280
aI124
aI59
aI186
aI236
aI137
aI219
aI304
aI19
aI629
aI547
aI72
aI612
aI412
aI486
aI618
aI368
aI296
aI122
aI184
aI44
aI480
aI406
aI482
aI481
aI24
aI591
aI605
aI25
aI414
aI403
aI420
aI9
aI316
aI297
aI620
aI346
aI66
aI426
aI158
aI597
aI429
aI501
aI357
aI398
aI449
aI20
aI270
aI283
aI108
aI356
aI571
aI613
aI555
aI657
aI179
aI163
aI207
aI154
aI290
aI112
aI637
aI624
aI437
aI386
aI358
aI400
aI451
aI139
aI383
aI418
aI13
aI485
aI201
aI361
aI377
aI106
aI615
aI410
aI279
aI167
aI18
aI153
aI11
aI342
aI579
aI411
aI323
aI345
aI461
aI176
aI143
aI621
aI367
aI41
aI22
aI616
aI483
aI36
aI337
aI241
aI396
aI132
aI168
aI55
aI174
aI497
aI649
aI328
aI84
aI610
aI313
aI325
aI476
aI263
aI417
aI248
aI421
aI473
aI57
aI419
aI562
aI187
aI101
aI436
aI582
aI372
aI51
aI492
aI136
aI446
aI14
aI77
aI348
aI550
aI354
aI512
aI622
aI438
aI144
aI644
aI81
aI600
aI110
aI369
aI535
aI56
aI39
aI343
aI45
aI580
aI205
aI478
aI360
aI656
aI155
aI352
aI665
aI549
aI291
aI603
aI92
aI344
aI17
aI249
aI244
aI650
aI246
aI67
aI566
aI120
aI312
aI169
aI202
aI150
aI559
aI405
aI392
aI165
aI488
aI513
aI271
aI172
aI474
aI466
aI181
aI99
aI585
aI272
aI536
aI409
aI646
aI529
aI85
aI542
aI78
aI298
aI189
aI424
aI573
aI116
aI21
aI638
aI240
aI448
aI380
aI111
aI447
aI540
aI221
aI284
aI133
aI225
aI667
aI37
aI503
aI376
aI634
aI254
aI194
aI48
aI58
aI228
aI470
aI63
aI170
aI53
aI432
aI569
aI38
aI276
aI50
aI596
aI442
aI499
aI340
aI223
aI261
aI314
aI627
aI286
aI267
aI456
aI647
aI266
aI64
aI520
aI329
aI388
aI462
aI439
aI589
aI641
aI232
aI147
aI299
aI83
aI16
aI306
aI385
aI433
aI545
aI491
aI275
aI129
aI477
aI440
aI188
aI214
aI652
aI551
aI508
aI664
aI626
aI33
aI408
aI351
aI269
aI557
aI285
aI422
aI75
aI576
aI277
aI537
aI91
aI609
aI524
aI212
aI268
aI126
aI623
aI185
aI660
aI210
aI230
aI394
aI608
aI588
aI250
aI307
aI305
aI151
aI131
aI336
aI594
aI294
aI666
aI533
aI177
aI300
aI315
aI29
aI239
aI227
aI278
aI556
aI211
aI311
aI525
aI94
aI95
aI661
aI173
aI472
aI61
aI530
aI468
aI574
aI318
aI444
aI160
aI322
aI324
aI32
aI171
aI197
aI224
aI321
aI70
aI242
aI565
aI257
aI519
aI362
aI611
aI534
aI628
aI317
aI404
aI668
aI142
aI639
aI208
aI256
aI648
aI463
aI355
aI234
aI577
aI393
aI327
aI199
aI115
aI500
aI93
aI390
aI8
aI467
aI651
aI548
aI604
aI183
aI12
aI553
aI552
aI3
aI543
aI554
a.