(lp0
I548
aI1
aI305
aI225
aI41
aI363
aI42
aI238
aI76
aI33
aI156
aI656
aI61
aI641
aI129
aI77
aI185
aI355
aI135
aI297
aI431
aI608
aI65
aI483
aI352
aI410
aI591
aI558
aI547
aI259
aI379
aI358
aI476
aI588
aI51
aI497
aI91
aI535
aI236
aI326
aI179
aI630
aI284
aI6
aI613
aI64
aI281
aI312
aI240
aI545
aI595
aI295
aI138
aI10
aI440
aI187
aI162
aI606
aI350
aI63
aI145
aI105
aI411
aI615
aI511
aI645
aI171
aI622
aI604
aI126
aI258
aI304
aI526
aI663
aI70
aI329
aI372
aI639
aI325
aI666
aI565
aI388
aI485
aI567
aI249
aI98
aI360
aI475
aI582
aI390
aI166
aI368
aI85
aI534
aI399
aI502
aI289
aI319
aI48
aI321
aI405
aI120
aI398
aI109
aI365
aI331
aI393
aI71
aI208
aI575
aI353
aI560
aI142
aI380
aI559
aI359
aI338
aI87
aI377
aI435
aI670
aI14
aI577
aI448
aI466
aI505
aI513
aI228
aI209
aI16
aI562
aI337
aI254
aI190
aI550
aI262
aI245
aI115
aI23
aI438
aI594
aI429
aI444
aI635
aI168
aI306
aI274
aI46
aI506
aI106
aI346
aI167
aI60
aI133
aI374
aI239
aI633
aI8
aI544
aI154
aI537
aI17
aI510
aI644
aI210
aI386
aI554
aI31
aI531
aI508
aI581
aI237
aI592
aI373
aI364
aI193
aI242
aI472
aI465
aI131
aI457
aI144
aI74
aI199
aI648
aI99
aI158
aI276
aI500
aI301
aI409
aI461
aI110
aI443
aI668
aI657
aI221
aI27
aI287
aI620
aI317
aI598
aI423
aI571
aI198
aI125
aI371
aI313
aI275
aI522
aI177
aI655
aI585
aI214
aI234
aI189
aI108
aI514
aI662
aI137
aI647
aI406
aI540
aI37
aI488
aI215
aI165
aI30
aI517
aI523
aI541
aI223
aI491
aI282
aI442
aI473
aI408
aI29
aI424
aI257
aI84
aI659
aI609
aI407
aI130
aI330
aI447
aI172
aI432
aI112
aI86
aI121
aI107
aI196
aI538
aI322
aI468
aI474
aI428
aI480
aI235
aI7
aI12
aI628
aI256
aI58
aI140
aI310
aI279
aI4
aI173
aI376
aI180
aI335
aI78
aI401
aI590
aI195
aI484
aI634
aI563
aI464
aI515
aI632
aI509
aI90
aI555
aI13
aI518
aI188
aI200
aI487
aI269
aI638
aI552
aI576
aI381
aI263
aI146
aI268
aI227
aI128
aI83
aI181
aI229
aI36
aI362
aI52
aI253
aI218
aI602
aI460
aI328
aI439
aI122
aI369
aI170
aI88
aI324
aI653
aI420
aI271
aI664
aI519
aI389
aI290
aI316
aI25
aI651
aI542
aI21
aI184
aI2
aI580
aI578
aI404
aI452
aI433
aI427
aI583
aI524
aI220
aI366
aI72
aI68
aI434
aI53
aI114
aI231
aI614
aI392
aI211
aI280
aI456
aI527
aI93
aI318
aI603
aI629
aI403
aI97
aI422
aI311
aI370
aI584
aI533
aI512
aI296
aI113
aI421
aI127
aI103
aI525
aI102
aI492
aI395
aI288
aI202
aI57
aI654
aI556
aI26
aI459
aI521
aI342
aI178
aI623
aI549
aI636
aI224
aI201
aI436
aI532
aI44
aI382
aI354
aI600
aI277
aI626
aI104
aI413
aI430
aI308
aI573
aI38
aI543
aI553
aI3
aI315
aI462
aI264
aI204
aI568
aI612
aI89
aI247
aI298
aI396
aI477
aI62
aI478
aI441
aI34
aI160
aI303
aI294
aI494
aI123
aI163
aI493
aI454
aI81
aI489
aI539
aI314
aI611
aI117
aI22
aI67
aI69
aI529
aI293
aI332
aI347
aI119
aI446
aI153
aI206
aI501
aI19
aI455
aI194
aI589
aI551
aI378
aI530
aI222
aI649
aI499
aI397
aI587
aI230
aI155
aI416
aI419
aI265
aI640
aI385
aI50
aI470
aI285
aI251
aI579
aI572
aI495
aI116
aI458
aI255
aI302
aI267
aI486
aI226
aI55
aI367
aI391
aI101
aI148
aI414
aI143
aI92
aI40
aI669
aI426
aI5
aI569
aI49
aI437
aI134
aI469
aI32
aI292
aI213
aI270
aI11
aI665
aI139
aI56
aI507
aI479
aI417
aI9
aI607
aI561
aI637
aI24
aI266
aI169
aI597
aI564
aI183
aI357
aI96
aI661
aI212
aI207
aI244
aI219
aI599
aI136
aI216
aI54
aI248
aI272
aI627
aI260
aI299
aI203
aI286
aI79
aI141
aI241
aI309
aI283
aI273
aI186
aI157
aI463
aI233
aI574
aI625
aI660
aI94
aI151
aI174
aI616
aI340
aI528
aI80
aI278
aI243
aI261
aI496
aI35
aI334
aI47
aI307
aI150
aI339
aI402
aI39
aI159
aI618
aI596
aI624
aI546
aI323
aI197
aI504
aI95
aI646
aI176
aI621
aI467
aI498
aI175
aI471
aI605
aI132
aI345
aI481
aI652
aI217
aI205
aI111
aI82
aI28
aI570
aI341
aI418
aI344
aI124
aI383
aI593
aI161
aI349
aI631
aI149
aI73
aI75
aI566
aI118
aI343
aI246
aI356
aI45
aI375
aI250
aI400
aI361
aI520
aI252
aI490
aI336
aI425
aI617
aI667
aI642
aI18
aI59
aI232
aI453
aI348
aI320
aI610
aI327
aI182
aI300
aI43
aI20
aI619
aI557
aI15
aI164
aI100
aI351
aI643
aI658
aI394
aI192
aI387
aI333
aI147
aI450
aI482
aI384
aI536
aI451
aI152
aI650
aI412
aI503
aI516
aI66
aI191
aI601
aI449
aI586
aI445
aI415
aI291
a.