(lp0
I534
aI557
aI556
aI555
aI2
aI561
aI565
aI580
aI75
aI588
aI606
aI614
aI115
aI205
aI245
aI579
aI587
aI605
aI70
aI200
aI110
aI613
aI240
aI560
aI620
aI275
aI630
aI656
aI571
aI325
aI638
aI455
aI30
aI582
aI664
aI595
aI365
aI85
aI590
aI619
aI584
aI495
aI608
aI597
aI150
aI95
aI616
aI160
aI215
aI610
aI125
aI592
aI629
aI270
aI255
aI225
aI655
aI320
aI135
aI637
aI618
aI450
aI663
aI265
aI360
aI581
aI490
aI589
aI80
aI607
aI17
aI670
aI210
aI120
aI615
aI583
aI250
aI533
aI609
aI591
aI563
aI621
aI90
aI280
aI645
aI130
aI617
aI623
aI220
aI669
aI647
aI260
aI400
aI290
aI632
aI520
aI634
aI335
aI640
aI658
aI525
aI410
aI642
aI666
aI345
aI375
aI660
aI465
aI505
aI475
aI668
aI385
aI515
aI631
aI657
aI330
aI639
aI665
aI460
aI370
aI500
aI633
aI596
aI586
aI612
aI340
aI155
aI594
aI45
aI641
aI105
aI659
aI235
aI470
aI380
aI667
aI145
aI510
aI585
aI100
aI593
aI611
aI622
aI140
aI230
aI624
aI646
aI285
aI636
aI295
aI405
aI355
aI644
aI662
aI485
aI395
aI635
aI661
aI643
aI350
aI390
aI480
aI10
aI89
aI219
aI129
aI259
aI93
aI223
aI69
aI546
aI133
aI88
aI109
aI218
aI263
aI199
aI128
aI258
aI239
aI339
aI379
aI469
aI79
aI509
aI119
aI209
aI545
aI269
aI249
aI343
aI338
aI449
aI383
aI378
aI468
aI473
aI359
aI508
aI489
aI513
aI94
aI224
aI134
aI99
aI229
aI139
aI264
aI329
aI103
aI369
aI459
aI153
aI233
aI98
aI519
aI143
aI499
aI74
aI91
aI138
aI228
aI316
aI221
aI114
aI131
aI204
aI261
aI86
aI244
aI216
aI126
aI344
aI349
aI50
aI256
aI577
aI600
aI602
aI60
aI175
aI474
aI479
aI384
aI389
aI4
aI514
aI29
aI185
aI84
aI283
aI149
aI403
aI293
aI159
aI214
aI124
aI348
aI274
aI353
aI254
aI388
aI393
aI478
aI483
aI341
aI44
aI324
aI364
aI454
aI336
aI104
aI471
aI154
aI381
aI376
aI144
aI466
aI494
aI234
aI511
aI625
aI650
aI506
aI627
aI300
aI425
aI652
aI101
aI310
aI151
aI66
aI71
aI111
aI435
aI68
aI231
aI196
aI201
aI106
aI141
aI279
aI241
aI108
aI73
aI198
aI96
aI399
aI289
aI236
aI136
aI113
aI238
aI226
aI334
aI203
aI409
aI374
aI464
aI243
aI504
aI284
aI26
aI404
aI55
aI146
aI601
aI81
aI76
aI578
aI294
aI78
aI180
aI211
aI28
aI65
aI206
aI604
aI156
aI354
aI121
aI116
aI195
aI148
aI271
aI208
aI118
aI246
aI266
aI394
aI83
aI484
aI281
aI251
aI524
aI158
aI549
aI213
aI123
aI401
aI291
aI39
aI268
aI248
aI321
aI351
aI273
aI446
aI253
aI356
aI448
aI486
aI451
aI481
aI358
aI361
aI346
aI391
aI531
aI491
aI476
aI603
aI488
aI386
aI323
aI453
aI363
aI190
aI493
aI276
aI532
aI396
aI526
aI326
aI286
aI331
aI456
aI278
aI406
aI35
aI366
aI328
aI516
aI496
aI288
aI398
aI371
aI461
aI368
aI458
aI626
aI498
aI333
aI408
aI501
aI518
aI463
aI305
aI628
aI373
aI651
aI503
aI430
aI315
aI654
aI445
aI521
aI6
aI523
aI540
aI653
aI11
aI599
aI440
aI562
aI170
aI598
aI165
aI572
aI8
aI649
aI420
aI648
aI415
aI569
aI34
aI5
aI547
aI41
aI573
aI67
aI14
aI107
aI72
aI197
aI202
aI237
aI112
aI242
aI542
aI541
aI20
aI38
aI574
aI92
aI87
aI317
aI132
aI222
aI267
aI217
aI262
aI127
aI257
aI272
aI447
aI357
aI487
aI322
aI544
aI452
aI362
aI492
aI46
aI171
aI56
aI21
aI181
aI337
aI342
aI467
aI472
aI377
aI382
aI517
aI512
aI507
aI48
aI173
aI58
aI183
aI296
aI522
aI306
aI421
aI431
aI27
aI77
aI117
aI207
aI147
aI82
aI49
aI157
aI122
aI247
aI212
aI174
aI252
aI59
aI298
aI184
aI423
aI308
aI33
aI433
aI7
aI31
aI32
aI152
aI102
aI232
aI51
aI97
aI142
aI137
aI277
aI318
aI227
aI61
aI176
aI327
aI367
aI191
aI528
aI397
aI457
aI287
aI53
aI332
aI497
aI299
aI407
aI424
aI372
aI178
aI462
aI13
aI309
aI43
aI63
aI502
aI434
aI193
aI186
aI282
aI292
aI402
aI352
aI347
aI188
aI387
aI392
aI482
aI477
aI40
aI54
aI301
aI426
aI64
aI311
aI42
aI179
aI194
aI166
aI303
aI441
aI313
aI428
aI443
aI189
aI161
aI168
aI436
aI438
aI163
aI416
aI36
aI304
aI314
aI429
aI411
aI444
aI418
aI169
aI37
aI413
aI439
aI164
aI567
aI9
aI566
aI419
aI564
aI414
aI570
aI575
aI576
aI47
aI57
aI172
aI182
aI568
aI297
aI15
aI422
aI307
aI432
aI52
aI177
aI62
aI192
aI22
aI187
aI19
aI302
aI312
aI427
aI442
aI167
aI18
aI437
aI162
aI417
aI16
aI412
aI24
aI23
aI25
aI527
aI548
aI529
aI551
aI550
aI319
aI558
aI559
aI530
aI539
aI538
aI537
aI536
aI535
aI552
aI1
aI553
aI554
aI543
aI3
aI12
a.